target datalayout = "e-m:e-p270:32:32-p271:32:32-p272:64:64-i64:64-i128:128-f80:128-n8:16:32:64-S128"
target triple = "x86_64-pc-linux-gnu"

%struct.AVFormatContext = type { ptr, ptr, ptr, ptr, ptr, i32, i32, ptr, i32, ptr, i32, ptr, ptr, i64, i64, i64, i32, i32, i32, i64, i64, ptr, i32, i32, ptr, i32, i32, i32, i32, ptr, i64, i32, i32, %struct.AVIOInterruptCB, i32, i32, i32, i32, i64, i32, i32, i32, i32, i32, i32, i32, i32, i32, i32, i32, i32, i64, i32, i32, i32, i32, i32, ptr, ptr, ptr, ptr, i32, ptr, ptr, ptr, ptr, i32, ptr, ptr, i64, ptr, ptr, ptr, i64 }
%struct.AVIOInterruptCB = type { ptr, ptr }
%struct.MatroskaDemuxContext = type { ptr, ptr, [16 x %struct.MatroskaLevel], i32, i32, i64, i32, i64, double, ptr, ptr, %struct.EbmlBin, %struct.EbmlList, %struct.EbmlList, %struct.EbmlList, %struct.EbmlList, %struct.EbmlList, %struct.EbmlList, i64, ptr, %struct.PacketList, i32, i32, i64, i32, [64 x %struct.MatroskaLevel1Element], i32, %struct.MatroskaCluster, i32, i32, i32 }
%struct.MatroskaLevel = type { i64, i64 }
%struct.EbmlBin = type { i32, ptr, ptr, i64 }
%struct.EbmlList = type { i32, i32, ptr }
%struct.PacketList = type { ptr, ptr }
%struct.MatroskaLevel1Element = type { i64, i32, i32 }
%struct.MatroskaCluster = type { %struct.MatroskaBlock, i64, i64 }
%struct.MatroskaBlock = type { i64, %struct.CountedElement, i64, %struct.EbmlBin, %struct.EbmlList, i64 }
%struct.CountedElement = type { %union.anon.0, i32 }
%union.anon.0 = type { i64 }
%struct.MatroskaTrack = type { i64, i64, i64, ptr, ptr, %struct.EbmlBin, ptr, double, i64, i64, i64, i64, i64, i64, i64, %struct.CountedElement, i64, %struct.MatroskaTrackVideo, %struct.MatroskaTrackAudio, %struct.MatroskaTrackOperation, %struct.EbmlList, i64, i64, ptr, i64, i32, i32, i64, %struct.EbmlList, [256 x i32], i32 }
%struct.MatroskaTrackVideo = type { double, i64, i64, i64, i64, i64, i64, %struct.EbmlBin, i64, i64, i64, i64, i64, i64, i64, i64, i64, %struct.EbmlList, %struct.MatroskaTrackVideoProjection }
%struct.MatroskaTrackVideoProjection = type { i64, %struct.EbmlBin, double, double, double }
%struct.MatroskaTrackAudio = type { double, double, i64, i64, i32, i32, i32, i32, i32, i32, i64, ptr }
%struct.MatroskaTrackOperation = type { %struct.EbmlList }

; Function Attrs: nounwind uwtable
define internal void @matroska_clear_queue(ptr noundef %0) #0 {
  %2 = alloca ptr, align 8
  store ptr %0, ptr %2, align 8, !tbaa !27
  %3 = load ptr, ptr %2, align 8, !tbaa !27
  %4 = getelementptr inbounds nuw %struct.MatroskaDemuxContext, ptr %3, i32 0, i32 20
  call void @avpriv_packet_list_free(ptr noundef %4)
  ret void
}

; Function Attrs: nounwind uwtable
define internal i32 @matroska_read_close(ptr noundef %0) #0 {
  %2 = alloca ptr, align 8
  %3 = alloca ptr, align 8
  %4 = alloca ptr, align 8
  %5 = alloca i32, align 4
  store ptr %0, ptr %2, align 8, !tbaa !4
  call void @llvm.lifetime.start.p0(i64 8, ptr %3) #14
  %6 = load ptr, ptr %2, align 8, !tbaa !4
  %7 = getelementptr inbounds nuw %struct.AVFormatContext, ptr %6, i32 0, i32 3
  %8 = load ptr, ptr %7, align 8, !tbaa !11
  store ptr %8, ptr %3, align 8, !tbaa !27
  call void @llvm.lifetime.start.p0(i64 8, ptr %4) #14
  %9 = load ptr, ptr %3, align 8, !tbaa !27
  %10 = getelementptr inbounds nuw %struct.MatroskaDemuxContext, ptr %9, i32 0, i32 12
  %11 = getelementptr inbounds nuw %struct.EbmlList, ptr %10, i32 0, i32 2
  %12 = load ptr, ptr %11, align 8, !tbaa !51
  store ptr %12, ptr %4, align 8, !tbaa !52
  call void @llvm.lifetime.start.p0(i64 4, ptr %5) #14
  %13 = load ptr, ptr %3, align 8, !tbaa !27
  call void @matroska_clear_queue(ptr noundef %13)
  store i32 0, ptr %5, align 4, !tbaa !9
  br label %14

14:                                               ; preds = %37, %1
  %15 = load i32, ptr %5, align 4, !tbaa !9
  %16 = load ptr, ptr %3, align 8, !tbaa !27
  %17 = getelementptr inbounds nuw %struct.MatroskaDemuxContext, ptr %16, i32 0, i32 12
  %18 = getelementptr inbounds nuw %struct.EbmlList, ptr %17, i32 0, i32 0
  %19 = load i32, ptr %18, align 8, !tbaa !29
  %20 = icmp slt i32 %15, %19
  br i1 %20, label %21, label %40

21:                                               ; preds = %14
  %22 = load ptr, ptr %4, align 8, !tbaa !52
  %23 = load i32, ptr %5, align 4, !tbaa !9
  %24 = sext i32 %23 to i64
  %25 = getelementptr inbounds %struct.MatroskaTrack, ptr %22, i64 %24
  %26 = getelementptr inbounds nuw %struct.MatroskaTrack, ptr %25, i32 0, i32 2
  %27 = load i64, ptr %26, align 8, !tbaa !62
  %28 = icmp eq i64 %27, 2
  br i1 %28, label %29, label %36

29:                                               ; preds = %21
  %30 = load ptr, ptr %4, align 8, !tbaa !52
  %31 = load i32, ptr %5, align 4, !tbaa !9
  %32 = sext i32 %31 to i64
  %33 = getelementptr inbounds %struct.MatroskaTrack, ptr %30, i64 %32
  %34 = getelementptr inbounds nuw %struct.MatroskaTrack, ptr %33, i32 0, i32 18
  %35 = getelementptr inbounds nuw %struct.MatroskaTrackAudio, ptr %34, i32 0, i32 11
  call void @av_freep(ptr noundef %35)
  br label %36

36:                                               ; preds = %29, %21
  br label %37

37:                                               ; preds = %36
  %38 = load i32, ptr %5, align 4, !tbaa !9
  %39 = add nsw i32 %38, 1
  store i32 %39, ptr %5, align 4, !tbaa !9
  br label %14, !llvm.loop !63

40:                                               ; preds = %14
  %41 = load ptr, ptr %3, align 8, !tbaa !27
  call void @ebml_free(ptr noundef @matroska_segment, ptr noundef %41)
  call void @llvm.lifetime.end.p0(i64 4, ptr %5) #14
  call void @llvm.lifetime.end.p0(i64 8, ptr %4) #14
  call void @llvm.lifetime.end.p0(i64 8, ptr %3) #14
  ret i32 0
}