; Function Attrs: nounwind uwtable
define internal noundef i32 @matroska_read_close(ptr noundef readonly captures(none) %0) #0 {
  %2 = getelementptr inbounds nuw i8, ptr %0, i64 24
  %3 = load ptr, ptr %2, align 8, !tbaa !4
  %4 = getelementptr inbounds nuw i8, ptr %3, i64 360
  %5 = getelementptr inbounds nuw i8, ptr %3, i64 368
  %6 = load ptr, ptr %5, align 8, !tbaa !45
  %7 = getelementptr inbounds nuw i8, ptr %3, i64 472
  tail call void @avpriv_packet_list_free(ptr noundef nonnull %7) #15
  %8 = load i32, ptr %4, align 8, !tbaa !24
  %9 = icmp sgt i32 %8, 0
  br i1 %9, label %.lr.ph, label %._crit_edge

.lr.ph:                                           ; preds = %1, %17
  %10 = phi i32 [ %18, %17 ], [ %8, %1 ]
  %indvars.iv = phi i64 [ %indvars.iv.next, %17 ], [ 0, %1 ]
  %11 = getelementptr inbounds nuw %struct.MatroskaTrack, ptr %6, i64 %indvars.iv
  %12 = getelementptr inbounds nuw i8, ptr %11, i64 16
  %13 = load i64, ptr %12, align 8, !tbaa !127
  %14 = icmp eq i64 %13, 2
  br i1 %14, label %15, label %17

15:                                               ; preds = %.lr.ph
  %16 = getelementptr inbounds nuw i8, ptr %11, i64 472
  tail call void @av_freep(ptr noundef nonnull %16) #15
  %.pre = load i32, ptr %4, align 8, !tbaa !24
  br label %17

17:                                               ; preds = %.lr.ph, %15
  %18 = phi i32 [ %10, %.lr.ph ], [ %.pre, %15 ]
  %indvars.iv.next = add nuw nsw i64 %indvars.iv, 1
  %19 = sext i32 %18 to i64
  %20 = icmp slt i64 %indvars.iv.next, %19
  br i1 %20, label %.lr.ph, label %._crit_edge, !llvm.loop !128

._crit_edge:                                      ; preds = %17, %1
  tail call fastcc void @ebml_free(ptr noundef nonnull @matroska_segment, ptr noundef nonnull %3)
  ret i32 0
}